target datalayout = "e-m:e-p270:32:32-p271:32:32-p272:64:64-i64:64-i128:128-f80:128-n8:16:32:64-S128"
target triple = "x86_64-unknown-linux-gnu"

%struct.USBWacomState = type { %struct.USBDevice, ptr, ptr, i32, i32, i32, i32, i32, i32, i32, i32, i8, i32 }
%struct.USBDevice = type { %struct.DeviceState, ptr, ptr, ptr, ptr, i32, ptr, ptr, i32, i32, i8, [32 x i8], i32, i8, i32, [8 x i8], [4096 x i8], i32, i32, i32, i32, %struct.USBEndpoint, [15 x %struct.USBEndpoint], [15 x %struct.USBEndpoint], %struct.anon, ptr, ptr, i32, i32, [16 x i32], ptr, [16 x ptr] }
%struct.DeviceState = type { %struct.Object, ptr, ptr, i8, i8, i64, ptr, i32, i8, ptr, %struct.NamedGPIOListHead, %struct.NamedClockListHead, %struct.BusStateHead, i32, i32, i32, %struct.ResettableState, ptr, %struct.MemReentrancyGuard }
%struct.Object = type { ptr, ptr, ptr, i32, ptr }
%struct.NamedGPIOListHead = type { ptr }
%struct.NamedClockListHead = type { ptr }
%struct.BusStateHead = type { ptr }
%struct.ResettableState = type { i32, i8, i8 }
%struct.MemReentrancyGuard = type { i8 }
%struct.USBEndpoint = type { i8, i8, i8, i8, i32, i32, i8, i8, ptr, %union.anon }
%union.anon = type { %struct.QTailQLink }
%struct.QTailQLink = type { ptr, ptr }
%struct.anon = type { ptr }
%struct.USBPacket = type { i32, i64, ptr, i32, %struct.QEMUIOVector, i64, i8, i8, i32, i32, i32, ptr, %union.anon.3, %union.anon.4 }
%struct.QEMUIOVector = type { ptr, i32, %union.anon.0 }
%union.anon.0 = type { %struct.anon.1 }
%struct.anon.1 = type { i32, %struct.iovec }
%struct.iovec = type { ptr, i64 }
%union.anon.3 = type { %struct.QTailQLink }
%union.anon.4 = type { %struct.QTailQLink }

; Function Attrs: nounwind sspstrong uwtable
define internal void @usb_wacom_handle_control(ptr noundef %dev, ptr noundef %p, i32 noundef %request, i32 noundef %value, i32 noundef %index, i32 noundef %length, ptr noundef %data) #0 {
entry:
  %dev.addr = alloca ptr, align 8
  %p.addr = alloca ptr, align 8
  %request.addr = alloca i32, align 4
  %value.addr = alloca i32, align 4
  %index.addr = alloca i32, align 4
  %length.addr = alloca i32, align 4
  %data.addr = alloca ptr, align 8
  %s = alloca ptr, align 8
  %ret = alloca i32, align 4
  store ptr %dev, ptr %dev.addr, align 8
  store ptr %p, ptr %p.addr, align 8
  store i32 %request, ptr %request.addr, align 4
  store i32 %value, ptr %value.addr, align 4
  store i32 %index, ptr %index.addr, align 4
  store i32 %length, ptr %length.addr, align 4
  store ptr %data, ptr %data.addr, align 8
  %0 = load ptr, ptr %dev.addr, align 8
  store ptr %0, ptr %s, align 8
  %1 = load ptr, ptr %dev.addr, align 8
  %2 = load ptr, ptr %p.addr, align 8
  %3 = load i32, ptr %request.addr, align 4
  %4 = load i32, ptr %value.addr, align 4
  %5 = load i32, ptr %index.addr, align 4
  %6 = load i32, ptr %length.addr, align 4
  %7 = load ptr, ptr %data.addr, align 8
  %call = call i32 @usb_desc_handle_control(ptr noundef %1, ptr noundef %2, i32 noundef %3, i32 noundef %4, i32 noundef %5, i32 noundef %6, ptr noundef %7)
  store i32 %call, ptr %ret, align 4
  %8 = load i32, ptr %ret, align 4
  %cmp = icmp sge i32 %8, 0
  br i1 %cmp, label %if.then, label %if.end

if.then:                                          ; preds = %entry
  br label %sw.epilog35

if.end:                                           ; preds = %entry
  %9 = load i32, ptr %request.addr, align 4
  switch i32 %9, label %sw.default34 [
    i32 33030, label %sw.bb
    i32 8457, label %sw.bb2
    i32 8449, label %sw.bb6
    i32 41217, label %sw.bb12
    i32 41218, label %sw.bb27
    i32 8458, label %sw.bb30
  ]

sw.bb:                                            ; preds = %if.end
  %10 = load i32, ptr %value.addr, align 4
  %shr = ashr i32 %10, 8
  switch i32 %shr, label %sw.default [
    i32 34, label %sw.bb1
  ]

sw.bb1:                                           ; preds = %sw.bb
  %11 = load ptr, ptr %data.addr, align 8
  call void @llvm.memcpy.p0.p0.i64(ptr align 1 %11, ptr align 16 @qemu_wacom_hid_report_descriptor, i64 110, i1 false)
  %12 = load ptr, ptr %p.addr, align 8
  %actual_length = getelementptr inbounds %struct.USBPacket, ptr %12, i32 0, i32 9
  store i32 110, ptr %actual_length, align 8
  br label %sw.epilog

sw.default:                                       ; preds = %sw.bb
  br label %sw.epilog35

sw.epilog:                                        ; preds = %sw.bb1
  br label %sw.epilog35

sw.bb2:                                           ; preds = %if.end
  %13 = load ptr, ptr %s, align 8
  %mouse_grabbed = getelementptr inbounds %struct.USBWacomState, ptr %13, i32 0, i32 9
  %14 = load i32, ptr %mouse_grabbed, align 8
  %tobool = icmp ne i32 %14, 0
  br i1 %tobool, label %if.then3, label %if.end5

if.then3:                                         ; preds = %sw.bb2
  %15 = load ptr, ptr %s, align 8
  %eh_entry = getelementptr inbounds %struct.USBWacomState, ptr %15, i32 0, i32 2
  %16 = load ptr, ptr %eh_entry, align 8
  call void @qemu_remove_mouse_event_handler(ptr noundef %16)
  %17 = load ptr, ptr %s, align 8
  %mouse_grabbed4 = getelementptr inbounds %struct.USBWacomState, ptr %17, i32 0, i32 9
  store i32 0, ptr %mouse_grabbed4, align 8
  br label %if.end5

if.end5:                                          ; preds = %if.then3, %sw.bb2
  %18 = load ptr, ptr %data.addr, align 8
  %arrayidx = getelementptr i8, ptr %18, i64 0
  %19 = load i8, ptr %arrayidx, align 1
  %conv = zext i8 %19 to i32
  %20 = load ptr, ptr %s, align 8
  %mode = getelementptr inbounds %struct.USBWacomState, ptr %20, i32 0, i32 10
  store i32 %conv, ptr %mode, align 4
  br label %sw.epilog35

sw.bb6:                                           ; preds = %if.end
  %21 = load ptr, ptr %data.addr, align 8
  %arrayidx7 = getelementptr i8, ptr %21, i64 0
  store i8 0, ptr %arrayidx7, align 1
  %22 = load ptr, ptr %s, align 8
  %mode8 = getelementptr inbounds %struct.USBWacomState, ptr %22, i32 0, i32 10
  %23 = load i32, ptr %mode8, align 4
  %conv9 = trunc i32 %23 to i8
  %24 = load ptr, ptr %data.addr, align 8
  %arrayidx10 = getelementptr i8, ptr %24, i64 1
  store i8 %conv9, ptr %arrayidx10, align 1
  %25 = load ptr, ptr %p.addr, align 8
  %actual_length11 = getelementptr inbounds %struct.USBPacket, ptr %25, i32 0, i32 9
  store i32 2, ptr %actual_length11, align 8
  br label %sw.epilog35

sw.bb12:                                          ; preds = %if.end
  %26 = load ptr, ptr %s, align 8
  %mode13 = getelementptr inbounds %struct.USBWacomState, ptr %26, i32 0, i32 10
  %27 = load i32, ptr %mode13, align 4
  %cmp14 = icmp eq i32 %27, 1
  br i1 %cmp14, label %if.then16, label %if.else

if.then16:                                        ; preds = %sw.bb12
  %28 = load ptr, ptr %s, align 8
  %29 = load ptr, ptr %data.addr, align 8
  %30 = load i32, ptr %length.addr, align 4
  %call17 = call i32 @usb_mouse_poll(ptr noundef %28, ptr noundef %29, i32 noundef %30)
  %31 = load ptr, ptr %p.addr, align 8
  %actual_length18 = getelementptr inbounds %struct.USBPacket, ptr %31, i32 0, i32 9
  store i32 %call17, ptr %actual_length18, align 8
  br label %if.end26

if.else:                                          ; preds = %sw.bb12
  %32 = load ptr, ptr %s, align 8
  %mode19 = getelementptr inbounds %struct.USBWacomState, ptr %32, i32 0, i32 10
  %33 = load i32, ptr %mode19, align 4
  %cmp20 = icmp eq i32 %33, 2
  br i1 %cmp20, label %if.then22, label %if.end25

if.then22:                                        ; preds = %if.else
  %34 = load ptr, ptr %s, align 8
  %35 = load ptr, ptr %data.addr, align 8
  %36 = load i32, ptr %length.addr, align 4
  %call23 = call i32 @usb_wacom_poll(ptr noundef %34, ptr noundef %35, i32 noundef %36)
  %37 = load ptr, ptr %p.addr, align 8
  %actual_length24 = getelementptr inbounds %struct.USBPacket, ptr %37, i32 0, i32 9
  store i32 %call23, ptr %actual_length24, align 8
  br label %if.end25

if.end25:                                         ; preds = %if.then22, %if.else
  br label %if.end26

if.end26:                                         ; preds = %if.end25, %if.then16
  br label %sw.epilog35

sw.bb27:                                          ; preds = %if.end
  %38 = load ptr, ptr %s, align 8
  %idle = getelementptr inbounds %struct.USBWacomState, ptr %38, i32 0, i32 11
  %39 = load i8, ptr %idle, align 8
  %40 = load ptr, ptr %data.addr, align 8
  %arrayidx28 = getelementptr i8, ptr %40, i64 0
  store i8 %39, ptr %arrayidx28, align 1
  %41 = load ptr, ptr %p.addr, align 8
  %actual_length29 = getelementptr inbounds %struct.USBPacket, ptr %41, i32 0, i32 9
  store i32 1, ptr %actual_length29, align 8
  br label %sw.epilog35

sw.bb30:                                          ; preds = %if.end
  %42 = load i32, ptr %value.addr, align 4
  %shr31 = ashr i32 %42, 8
  %conv32 = trunc i32 %shr31 to i8
  %43 = load ptr, ptr %s, align 8
  %idle33 = getelementptr inbounds %struct.USBWacomState, ptr %43, i32 0, i32 11
  store i8 %conv32, ptr %idle33, align 8
  br label %sw.epilog35

sw.default34:                                     ; preds = %if.end
  %44 = load ptr, ptr %p.addr, align 8
  %status = getelementptr inbounds %struct.USBPacket, ptr %44, i32 0, i32 8
  store i32 -3, ptr %status, align 4
  br label %sw.epilog35

sw.epilog35:                                      ; preds = %sw.default34, %sw.bb30, %sw.bb27, %if.end26, %sw.bb6, %if.end5, %sw.epilog, %sw.default, %if.then
  ret void
}