; Function Attrs: nounwind sspstrong uwtable
define internal void @usb_wacom_handle_control(ptr noundef %dev, ptr noundef %p, i32 noundef %request, i32 noundef %value, i32 noundef %index, i32 noundef %length, ptr noundef %data) #0 {
entry:
  %call = tail call i32 @usb_desc_handle_control(ptr noundef %dev, ptr noundef %p, i32 noundef %request, i32 noundef %value, i32 noundef %index, i32 noundef %length, ptr noundef %data) #7
  %cmp = icmp sgt i32 %call, -1
  br i1 %cmp, label %sw.epilog35, label %if.end

if.end:                                           ; preds = %entry
  switch i32 %request, label %sw.default34 [
    i32 33030, label %sw.bb
    i32 8457, label %sw.bb2
    i32 8449, label %sw.bb6
    i32 41217, label %sw.bb12
    i32 41218, label %sw.bb27
    i32 8458, label %sw.bb30
  ]

sw.bb:                                            ; preds = %if.end
  %shr.mask = and i32 %value, -256
  %cond = icmp eq i32 %shr.mask, 8704
  br i1 %cond, label %sw.bb1, label %sw.epilog35

sw.bb1:                                           ; preds = %sw.bb
  tail call void @llvm.memcpy.p0.p0.i64(ptr noundef nonnull align 1 dereferenceable(110) %data, ptr noundef nonnull align 16 dereferenceable(110) @qemu_wacom_hid_report_descriptor, i64 110, i1 false)
  %actual_length = getelementptr inbounds nuw i8, ptr %p, i64 88
  store i32 110, ptr %actual_length, align 8
  br label %sw.epilog35

sw.bb2:                                           ; preds = %if.end
  %mouse_grabbed = getelementptr inbounds nuw i8, ptr %dev, i64 5904
  %0 = load i32, ptr %mouse_grabbed, align 8
  %tobool.not = icmp eq i32 %0, 0
  br i1 %tobool.not, label %if.end5, label %if.then3

if.then3:                                         ; preds = %sw.bb2
  %eh_entry = getelementptr inbounds nuw i8, ptr %dev, i64 5872
  %1 = load ptr, ptr %eh_entry, align 8
  tail call void @qemu_remove_mouse_event_handler(ptr noundef %1) #7
  store i32 0, ptr %mouse_grabbed, align 8
  br label %if.end5

if.end5:                                          ; preds = %if.then3, %sw.bb2
  %2 = load i8, ptr %data, align 1
  %conv = zext i8 %2 to i32
  %mode = getelementptr inbounds nuw i8, ptr %dev, i64 5908
  store i32 %conv, ptr %mode, align 4
  br label %sw.epilog35

sw.bb6:                                           ; preds = %if.end
  store i8 0, ptr %data, align 1
  %mode8 = getelementptr inbounds nuw i8, ptr %dev, i64 5908
  %3 = load i32, ptr %mode8, align 4
  %conv9 = trunc i32 %3 to i8
  %arrayidx10 = getelementptr i8, ptr %data, i64 1
  store i8 %conv9, ptr %arrayidx10, align 1
  %actual_length11 = getelementptr inbounds nuw i8, ptr %p, i64 88
  store i32 2, ptr %actual_length11, align 8
  br label %sw.epilog35

sw.bb12:                                          ; preds = %if.end
  %mode13 = getelementptr inbounds nuw i8, ptr %dev, i64 5908
  %4 = load i32, ptr %mode13, align 4
  switch i32 %4, label %sw.epilog35 [
    i32 1, label %if.then16
    i32 2, label %if.then22
  ]

if.then16:                                        ; preds = %sw.bb12
  %call17 = tail call fastcc i32 @usb_mouse_poll(ptr noundef nonnull %dev, ptr noundef %data, i32 noundef %length)
  %actual_length18 = getelementptr inbounds nuw i8, ptr %p, i64 88
  store i32 %call17, ptr %actual_length18, align 8
  br label %sw.epilog35

if.then22:                                        ; preds = %sw.bb12
  %call23 = tail call fastcc i32 @usb_wacom_poll(ptr noundef nonnull %dev, ptr noundef %data, i32 noundef %length)
  %actual_length24 = getelementptr inbounds nuw i8, ptr %p, i64 88
  store i32 %call23, ptr %actual_length24, align 8
  br label %sw.epilog35

sw.bb27:                                          ; preds = %if.end
  %idle = getelementptr inbounds nuw i8, ptr %dev, i64 5912
  %5 = load i8, ptr %idle, align 8
  store i8 %5, ptr %data, align 1
  %actual_length29 = getelementptr inbounds nuw i8, ptr %p, i64 88
  store i32 1, ptr %actual_length29, align 8
  br label %sw.epilog35

sw.bb30:                                          ; preds = %if.end
  %shr31 = lshr i32 %value, 8
  %conv32 = trunc i32 %shr31 to i8
  %idle33 = getelementptr inbounds nuw i8, ptr %dev, i64 5912
  store i8 %conv32, ptr %idle33, align 8
  br label %sw.epilog35

sw.default34:                                     ; preds = %if.end
  %status = getelementptr inbounds nuw i8, ptr %p, i64 84
  store i32 -3, ptr %status, align 4
  br label %sw.epilog35

sw.epilog35:                                      ; preds = %sw.bb12, %if.then16, %if.then22, %sw.bb, %entry, %sw.default34, %sw.bb30, %sw.bb27, %sw.bb6, %if.end5, %sw.bb1
  ret void
}